target datalayout = "e-m:e-p270:32:32-p271:32:32-p272:64:64-i64:64-i128:128-f80:128-n8:16:32:64-S128"
target triple = "x86_64-pc-linux-gnu"

%struct.PlatformTarget = type { ptr, i32, ptr, ptr, i32, i32, i32, i32, i32, i32, i32, [7 x %struct.AlignData], [7 x %struct.AlignData], [7 x %struct.AlignData], i32, i16, %union.anon.88, i8, i8, i8, i8, i8, i8, i8, i8, i8, i8, %struct.AlignData, i32, i32, i32, i32, i32, i32, i32, i32, i32, i32, i32, i32, i32, i32, i32, i32, ptr }
%union.anon.88 = type { %struct.anon.90 }
%struct.anon.90 = type { %struct.X86Features, i32, i32 }
%struct.X86Features = type { [2 x i64], ptr }
%struct.AlignData = type { i32, i32 }
%struct.Type_ = type { i32, ptr, ptr, ptr, %union.anon.85, ptr, ptr, %union.anon.87 }
%union.anon.85 = type { ptr }
%union.anon.87 = type { %struct.TypeFunction }
%struct.TypeFunction = type { ptr, ptr, ptr }
%struct.TypeArray = type { ptr, i32 }

@platform_target = external global %struct.PlatformTarget, align 8
@.str = private unnamed_addr constant [36 x i8] c"FATAL ERROR %s -> in %s @ in %s:%d \00", align 1
@.str.1 = private unnamed_addr constant [22 x i8] c"Should be unreachable\00", align 1
@.str.2 = private unnamed_addr constant [114 x i8] c"generated/home/dtcxzyw/WorkSpace/Projects/compilers/llvm-opt-benchmark/bench/c3c/c3c/src/compiler/abi/c_abi_x64.c\00", align 1
@__func__.x64_classify = private unnamed_addr constant [13 x i8] c"x64_classify\00", align 1

; Function Attrs: nounwind uwtable
define dso_local void @x64_classify_vector(ptr noundef %0, i64 noundef %1, ptr noundef %2, ptr noundef %3, ptr noundef %4, i32 noundef %5) #0 {
  %7 = alloca ptr, align 8
  %8 = alloca i64, align 8
  %9 = alloca ptr, align 8
  %10 = alloca ptr, align 8
  %11 = alloca ptr, align 8
  %12 = alloca i32, align 4
  %13 = alloca i32, align 4
  %14 = alloca i64, align 8
  %15 = alloca i64, align 8
  %16 = alloca ptr, align 8
  store ptr %0, ptr %7, align 8
  store i64 %1, ptr %8, align 8
  store ptr %2, ptr %9, align 8
  store ptr %3, ptr %10, align 8
  store ptr %4, ptr %11, align 8
  store i32 %5, ptr %12, align 4
  %17 = load ptr, ptr %7, align 8
  %18 = call i32 @type_size(ptr noundef %17)
  store i32 %18, ptr %13, align 4
  %19 = load i32, ptr %13, align 4
  %20 = icmp eq i32 %19, 1
  br i1 %20, label %27, label %21

21:                                               ; preds = %6
  %22 = load i32, ptr %13, align 4
  %23 = icmp eq i32 %22, 2
  br i1 %23, label %27, label %24

24:                                               ; preds = %21
  %25 = load i32, ptr %13, align 4
  %26 = icmp eq i32 %25, 4
  br i1 %26, label %27, label %45

27:                                               ; preds = %24, %21, %6
  %28 = load ptr, ptr %9, align 8
  store i32 2, ptr %28, align 4
  %29 = load i64, ptr %8, align 8
  %30 = udiv i64 %29, 8
  store i64 %30, ptr %14, align 8
  %31 = load i64, ptr %8, align 8
  %32 = load i32, ptr %13, align 4
  %33 = zext i32 %32 to i64
  %34 = add i64 %31, %33
  %35 = sub i64 %34, 1
  %36 = udiv i64 %35, 8
  store i64 %36, ptr %15, align 8
  %37 = load i64, ptr %15, align 8
  %38 = load i64, ptr %14, align 8
  %39 = icmp ne i64 %37, %38
  br i1 %39, label %40, label %44

40:                                               ; preds = %27
  %41 = load ptr, ptr %10, align 8
  %42 = load i32, ptr %41, align 4
  %43 = load ptr, ptr %11, align 8
  store i32 %42, ptr %43, align 4
  br label %44

44:                                               ; preds = %40, %27
  br label %89

45:                                               ; preds = %24
  %46 = load i32, ptr %13, align 4
  %47 = icmp eq i32 %46, 8
  br i1 %47, label %48, label %70

48:                                               ; preds = %45
  %49 = load ptr, ptr %7, align 8
  %50 = getelementptr inbounds %struct.Type_, ptr %49, i32 0, i32 7
  %51 = getelementptr inbounds %struct.TypeArray, ptr %50, i32 0, i32 0
  %52 = load ptr, ptr %51, align 8
  store ptr %52, ptr %16, align 8
  %53 = load ptr, ptr %16, align 8
  %54 = getelementptr inbounds %struct.Type_, ptr %53, i32 0, i32 0
  %55 = load i32, ptr %54, align 8
  %56 = icmp eq i32 %55, 16
  br i1 %56, label %57, label %58

57:                                               ; preds = %48
  br label %89

58:                                               ; preds = %48
  %59 = load ptr, ptr %9, align 8
  store i32 3, ptr %59, align 4
  %60 = load i64, ptr %8, align 8
  %61 = icmp ne i64 %60, 0
  br i1 %61, label %62, label %69

62:                                               ; preds = %58
  %63 = load i64, ptr %8, align 8
  %64 = icmp ne i64 %63, 8
  br i1 %64, label %65, label %69

65:                                               ; preds = %62
  %66 = load ptr, ptr %10, align 8
  %67 = load i32, ptr %66, align 4
  %68 = load ptr, ptr %11, align 8
  store i32 %67, ptr %68, align 4
  br label %69

69:                                               ; preds = %65, %62, %58
  br label %89

70:                                               ; preds = %45
  %71 = load i32, ptr %13, align 4
  %72 = icmp eq i32 %71, 16
  br i1 %72, label %80, label %73

73:                                               ; preds = %70
  %74 = load i32, ptr %12, align 4
  %75 = icmp eq i32 %74, 1
  br i1 %75, label %76, label %89

76:                                               ; preds = %73
  %77 = load i32, ptr %13, align 4
  %78 = load i32, ptr getelementptr inbounds (%struct.anon.90, ptr getelementptr inbounds (%struct.PlatformTarget, ptr @platform_target, i32 0, i32 16), i32 0, i32 2), align 4
  %79 = icmp ule i32 %77, %78
  br i1 %79, label %80, label %89

80:                                               ; preds = %76, %70
  %81 = load i32, ptr getelementptr inbounds (%struct.anon.90, ptr getelementptr inbounds (%struct.PlatformTarget, ptr @platform_target, i32 0, i32 16), i32 0, i32 1), align 8
  %82 = lshr i32 %81, 19
  %83 = and i32 %82, 1
  %84 = trunc i32 %83 to i1
  br i1 %84, label %85, label %86

85:                                               ; preds = %80
  br label %89

86:                                               ; preds = %80
  %87 = load ptr, ptr %10, align 8
  store i32 3, ptr %87, align 4
  %88 = load ptr, ptr %11, align 8
  store i32 4, ptr %88, align 4
  br label %89

89:                                               ; preds = %86, %85, %76, %73, %69, %57, %44
  ret void
}

; Function Attrs: nounwind uwtable
define internal void @x64_classify(ptr noundef %0, i64 noundef %1, ptr noundef %2, ptr noundef %3, i32 noundef %4) #0 {
  %6 = alloca ptr, align 8
  %7 = alloca i64, align 8
  %8 = alloca ptr, align 8
  %9 = alloca ptr, align 8
  %10 = alloca i32, align 4
  %11 = alloca ptr, align 8
  store ptr %0, ptr %6, align 8
  store i64 %1, ptr %7, align 8
  store ptr %2, ptr %8, align 8
  store ptr %3, ptr %9, align 8
  store i32 %4, ptr %10, align 4
  %12 = load ptr, ptr %8, align 8
  store i32 0, ptr %12, align 4
  %13 = load ptr, ptr %9, align 8
  store i32 0, ptr %13, align 4
  %14 = load i64, ptr %7, align 8
  %15 = icmp ult i64 %14, 8
  br i1 %15, label %16, label %18

16:                                               ; preds = %5
  %17 = load ptr, ptr %8, align 8
  br label %20

18:                                               ; preds = %5
  %19 = load ptr, ptr %9, align 8
  br label %20

20:                                               ; preds = %18, %16
  %21 = phi ptr [ %17, %16 ], [ %19, %18 ]
  store ptr %21, ptr %11, align 8
  %22 = load ptr, ptr %11, align 8
  store i32 1, ptr %22, align 4
  %23 = load ptr, ptr %6, align 8
  %24 = call ptr @type_lowering(ptr noundef %23)
  store ptr %24, ptr %6, align 8
  %25 = load ptr, ptr %6, align 8
  %26 = getelementptr inbounds %struct.Type_, ptr %25, i32 0, i32 0
  %27 = load i32, ptr %26, align 8
  switch i32 %27, label %66 [
    i32 42, label %28
    i32 36, label %28
    i32 38, label %28
    i32 39, label %28
    i32 0, label %28
    i32 43, label %28
    i32 41, label %28
    i32 24, label %28
    i32 31, label %28
    i32 22, label %28
    i32 32, label %28
    i32 21, label %28
    i32 30, label %28
    i32 29, label %28
    i32 40, label %28
    i32 20, label %28
    i32 25, label %28
    i32 18, label %28
    i32 28, label %28
    i32 1, label %31
    i32 7, label %33
    i32 12, label %33
    i32 34, label %33
    i32 19, label %33
    i32 2, label %36
    i32 8, label %36
    i32 9, label %36
    i32 10, label %36
    i32 11, label %36
    i32 3, label %36
    i32 4, label %36
    i32 5, label %36
    i32 6, label %36
    i32 14, label %38
    i32 13, label %38
    i32 15, label %38
    i32 16, label %38
    i32 17, label %40
    i32 23, label %43
    i32 26, label %45
    i32 27, label %45
    i32 35, label %52
    i32 33, label %52
    i32 37, label %59
  ]

28:                                               ; preds = %20, %20, %20, %20, %20, %20, %20, %20, %20, %20, %20, %20, %20, %20, %20, %20, %20, %20, %20
  br label %29

29:                                               ; preds = %28
  call void (ptr, ...) @error_exit(ptr noundef @.str, ptr noundef @.str.1, ptr noundef @__func__.x64_classify, ptr noundef @.str.2, i32 noundef 387) #5
  unreachable

30:                                               ; No predecessors!
  br label %31

31:                                               ; preds = %30, %20
  %32 = load ptr, ptr %11, align 8
  store i32 0, ptr %32, align 4
  br label %66

33:                                               ; preds = %20, %20, %20, %20
  %34 = load ptr, ptr %8, align 8
  store i32 2, ptr %34, align 4
  %35 = load ptr, ptr %9, align 8
  store i32 2, ptr %35, align 4
  br label %66

36:                                               ; preds = %20, %20, %20, %20, %20, %20, %20, %20, %20
  %37 = load ptr, ptr %11, align 8
  store i32 2, ptr %37, align 4
  br label %66

38:                                               ; preds = %20, %20, %20, %20
  %39 = load ptr, ptr %11, align 8
  store i32 3, ptr %39, align 4
  br label %66

40:                                               ; preds = %20
  %41 = load ptr, ptr %8, align 8
  store i32 3, ptr %41, align 4
  %42 = load ptr, ptr %9, align 8
  store i32 4, ptr %42, align 4
  br label %66

43:                                               ; preds = %20
  %44 = load ptr, ptr %11, align 8
  store i32 2, ptr %44, align 4
  br label %66

45:                                               ; preds = %20, %20
  %46 = load ptr, ptr %6, align 8
  %47 = load i64, ptr %7, align 8
  %48 = load ptr, ptr %11, align 8
  %49 = load ptr, ptr %8, align 8
  %50 = load ptr, ptr %9, align 8
  %51 = load i32, ptr %10, align 4
  call void @x64_classify_struct_union(ptr noundef %46, i64 noundef %47, ptr noundef %48, ptr noundef %49, ptr noundef %50, i32 noundef %51)
  br label %66

52:                                               ; preds = %20, %20
  %53 = load ptr, ptr %6, align 8
  %54 = load i64, ptr %7, align 8
  %55 = load ptr, ptr %11, align 8
  %56 = load ptr, ptr %8, align 8
  %57 = load ptr, ptr %9, align 8
  %58 = load i32, ptr %10, align 4
  call void @x64_classify_array(ptr noundef %53, i64 noundef %54, ptr noundef %55, ptr noundef %56, ptr noundef %57, i32 noundef %58)
  br label %66

59:                                               ; preds = %20
  %60 = load ptr, ptr %6, align 8
  %61 = load i64, ptr %7, align 8
  %62 = load ptr, ptr %11, align 8
  %63 = load ptr, ptr %8, align 8
  %64 = load ptr, ptr %9, align 8
  %65 = load i32, ptr %10, align 4
  call void @x64_classify_vector(ptr noundef %60, i64 noundef %61, ptr noundef %62, ptr noundef %63, ptr noundef %64, i32 noundef %65)
  br label %66

66:                                               ; preds = %59, %52, %45, %43, %40, %38, %36, %33, %31, %20
  ret void
}