; Function Attrs: nounwind uwtable
define internal fastcc void @x64_classify(ptr nocapture noundef readonly %0, i64 noundef %1, ptr nocapture noundef %2, ptr nocapture noundef %3, i32 noundef %4) unnamed_addr #1 {
  store i32 0, ptr %2, align 4
  store i32 0, ptr %3, align 4
  %6 = icmp ult i64 %1, 8
  %7 = select i1 %6, ptr %2, ptr %3
  store i32 1, ptr %7, align 4
  %8 = tail call fastcc ptr @type_lowering(ptr noundef %0)
  %9 = load i32, ptr %8, align 8
  switch i32 %9, label %x64_classify_vector.exit [
    i32 42, label %10
    i32 36, label %10
    i32 38, label %10
    i32 39, label %10
    i32 0, label %10
    i32 43, label %10
    i32 41, label %10
    i32 24, label %10
    i32 31, label %10
    i32 22, label %10
    i32 32, label %10
    i32 21, label %10
    i32 30, label %10
    i32 29, label %10
    i32 40, label %10
    i32 20, label %10
    i32 25, label %10
    i32 18, label %10
    i32 28, label %10
    i32 1, label %11
    i32 7, label %12
    i32 12, label %12
    i32 34, label %12
    i32 19, label %12
    i32 2, label %13
    i32 8, label %13
    i32 9, label %13
    i32 10, label %13
    i32 11, label %13
    i32 3, label %13
    i32 4, label %13
    i32 5, label %13
    i32 6, label %13
    i32 14, label %14
    i32 13, label %14
    i32 15, label %14
    i32 16, label %14
    i32 17, label %15
    i32 23, label %16
    i32 26, label %17
    i32 27, label %17
    i32 35, label %18
    i32 33, label %18
    i32 37, label %19
  ]

10:                                               ; preds = %5, %5, %5, %5, %5, %5, %5, %5, %5, %5, %5, %5, %5, %5, %5, %5, %5, %5, %5
  tail call void (ptr, ...) @error_exit(ptr noundef nonnull @.str, ptr noundef nonnull @.str.1, ptr noundef nonnull @__func__.x64_classify, ptr noundef nonnull @.str.2, i32 noundef 387) #8
  unreachable

11:                                               ; preds = %5
  store i32 0, ptr %7, align 4
  br label %x64_classify_vector.exit

12:                                               ; preds = %5, %5, %5, %5
  store i32 2, ptr %2, align 4
  store i32 2, ptr %3, align 4
  br label %x64_classify_vector.exit

13:                                               ; preds = %5, %5, %5, %5, %5, %5, %5, %5, %5
  store i32 2, ptr %7, align 4
  br label %x64_classify_vector.exit

14:                                               ; preds = %5, %5, %5, %5
  store i32 3, ptr %7, align 4
  br label %x64_classify_vector.exit

15:                                               ; preds = %5
  store i32 3, ptr %2, align 4
  store i32 4, ptr %3, align 4
  br label %x64_classify_vector.exit

16:                                               ; preds = %5
  store i32 2, ptr %7, align 4
  br label %x64_classify_vector.exit

17:                                               ; preds = %5, %5
  tail call void @x64_classify_struct_union(ptr noundef nonnull %8, i64 noundef %1, ptr noundef nonnull %7, ptr noundef nonnull %2, ptr noundef nonnull %3, i32 noundef %4)
  br label %x64_classify_vector.exit

18:                                               ; preds = %5, %5
  tail call void @x64_classify_array(ptr noundef nonnull %8, i64 noundef %1, ptr noundef nonnull %7, ptr noundef nonnull %2, ptr noundef nonnull %3, i32 noundef %4)
  br label %x64_classify_vector.exit

19:                                               ; preds = %5
  %20 = tail call i32 @type_size(ptr noundef nonnull %8) #7
  switch i32 %20, label %36 [
    i32 4, label %21
    i32 2, label %21
    i32 1, label %21
    i32 8, label %27
    i32 16, label %39
  ]

21:                                               ; preds = %19, %19, %19
  store i32 2, ptr %7, align 4
  %22 = zext nneg i32 %20 to i64
  %23 = add i64 %1, -1
  %24 = add i64 %23, %22
  %.not30.unshifted.i = xor i64 %24, %1
  %.not30.i = icmp ult i64 %.not30.unshifted.i, 8
  br i1 %.not30.i, label %x64_classify_vector.exit, label %25

25:                                               ; preds = %21
  %26 = load i32, ptr %2, align 4
  br label %.sink.split.i

27:                                               ; preds = %19
  %28 = getelementptr inbounds i8, ptr %8, i64 56
  %29 = load ptr, ptr %28, align 8
  %30 = load i32, ptr %29, align 8
  %31 = icmp eq i32 %30, 16
  br i1 %31, label %x64_classify_vector.exit, label %32

32:                                               ; preds = %27
  store i32 3, ptr %7, align 4
  %33 = and i64 %1, -9
  %or.cond5.not.i = icmp eq i64 %33, 0
  br i1 %or.cond5.not.i, label %x64_classify_vector.exit, label %34

34:                                               ; preds = %32
  %35 = load i32, ptr %2, align 4
  br label %.sink.split.i

36:                                               ; preds = %19
  %37 = icmp ne i32 %4, 1
  %38 = load i32, ptr getelementptr inbounds (%struct.PlatformTarget, ptr @platform_target, i64 0, i32 16, i32 0, i32 2), align 4
  %.not.i = icmp ugt i32 %20, %38
  %or.cond.i = select i1 %37, i1 true, i1 %.not.i
  br i1 %or.cond.i, label %x64_classify_vector.exit, label %39

39:                                               ; preds = %36, %19
  %40 = load i32, ptr getelementptr inbounds (%struct.PlatformTarget, ptr @platform_target, i64 0, i32 16, i32 0, i32 1), align 8
  %41 = and i32 %40, 524288
  %.not29.i = icmp eq i32 %41, 0
  br i1 %.not29.i, label %42, label %x64_classify_vector.exit

42:                                               ; preds = %39
  store i32 3, ptr %2, align 4
  br label %.sink.split.i

.sink.split.i:                                    ; preds = %42, %34, %25
  %.sink.i = phi i32 [ %35, %34 ], [ %26, %25 ], [ 4, %42 ]
  store i32 %.sink.i, ptr %3, align 4
  br label %x64_classify_vector.exit

x64_classify_vector.exit:                         ; preds = %.sink.split.i, %39, %36, %32, %27, %21, %18, %17, %16, %15, %14, %13, %12, %11, %5
  ret void
}